target datalayout = "e-m:e-p270:32:32-p271:32:32-p272:64:64-i64:64-i128:128-f80:128-n8:16:32:64-S128"
target triple = "x86_64-pc-linux-gnu"

%struct.ssl_connection_st = type { %struct.ssl_st, ptr, i32, ptr, ptr, ptr, i32, ptr, i32, i32, i32, i32, %struct.OSSL_TIME, %struct.OSSL_TIME, %struct.ossl_statem_st, i32, ptr, ptr, i64, i64, i64, %struct.ossl_quic_tls_callbacks_st, ptr, ptr, %struct.anon, ptr, ptr, ptr, i32, ptr, %struct.ssl_dane_st, ptr, ptr, ptr, ptr, i32, [64 x i8], [64 x i8], [64 x i8], [64 x i8], [64 x i8], [64 x i8], [64 x i8], [64 x i8], [64 x i8], [64 x i8], [64 x i8], [64 x i8], ptr, [64 x i8], i64, i32, i64, [32 x i8], ptr, ptr, ptr, i64, ptr, [32 x i8], i64, i32, ptr, ptr, i32, i32, ptr, ptr, ptr, ptr, ptr, i64, ptr, ptr, i64, i32, i32, i32, i64, i32, i32, i64, i64, i64, %struct.anon.1, ptr, i32, ptr, ptr, ptr, i32, ptr, ptr, ptr, i32, i32, i32, i32, ptr, i64, i32, ptr, %struct.srp_ctx_st, ptr, %struct.record_layer_st, ptr, ptr, ptr, ptr, i64, i32, i32, i32, i64, i64, i64, ptr, ptr, ptr, ptr, ptr, i64, ptr, i64, ptr, i64 }
%struct.ssl_st = type { i32, ptr, ptr, ptr, %struct.CRYPTO_REF_COUNT, ptr, %struct.crypto_ex_data_st }
%struct.CRYPTO_REF_COUNT = type { i32 }
%struct.crypto_ex_data_st = type { ptr, ptr }
%struct.OSSL_TIME = type { i64 }
%struct.ossl_statem_st = type { i32, i32, i32, i32, i32, i32, i32, i32, i32, i32, i32, i32, i32, ptr, ptr, ptr, i8 }
%struct.ossl_quic_tls_callbacks_st = type { ptr, ptr, ptr, ptr, ptr, ptr }
%struct.anon = type { i64, [32 x i8], [32 x i8], ptr, ptr, i32, i32, i32, i32, [2 x i8], i32, i32, i32, i32, %struct.anon.0, [64 x i8], i64, [64 x i8], i64, i32, i32, ptr, i64, ptr, i64, i32, i8, i8, i16, ptr, i16 }
%struct.anon.0 = type { [128 x i8], i64, [128 x i8], i64, i64, i32, ptr, ptr, [4 x ptr], [4 x i16], i64, i32, ptr, i64, ptr, i64, ptr, ptr, ptr, i32, i64, ptr, i32, ptr, i64, ptr, i64, ptr, i64, ptr, ptr, ptr, ptr, i64, i64, ptr, ptr, i32, i32, i32, i32 }
%struct.ssl_dane_st = type { ptr, ptr, ptr, ptr, ptr, i32, i32, i32, i64 }
%struct.anon.1 = type { [29 x i8], ptr, ptr, ptr, i32, ptr, i16, i32, %struct.anon.2, i32, i32, i64, ptr, i64, ptr, i64, ptr, i64, ptr, i64, ptr, i64, ptr, ptr, ptr, ptr, ptr, ptr, ptr, i64, ptr, i64, i32, i32, i32, i32, ptr, i64, i32, i8, i32, [4 x i32], i32, i8, i8, i8, i8 }
%struct.anon.2 = type { ptr, ptr, ptr, i64 }
%struct.srp_ctx_st = type { ptr, ptr, ptr, ptr, ptr, ptr, ptr, ptr, ptr, ptr, ptr, ptr, ptr, ptr, i32, i64 }
%struct.record_layer_st = type { ptr, ptr, ptr, ptr, ptr, ptr, ptr, ptr, i64, i32, i64, [4 x i8], i64, i64, i8, ptr, i32, ptr, ptr, ptr, i64, i64, i64, i64, [32 x %struct.tls_record_st] }
%struct.tls_record_st = type { ptr, i32, i8, ptr, ptr, i64, i64, i16, [8 x i8] }
%struct.ssl_ctx_st = type { ptr, ptr, ptr, ptr, ptr, ptr, ptr, i64, ptr, ptr, i32, %struct.OSSL_TIME, ptr, ptr, ptr, %struct.anon.4, %struct.CRYPTO_REF_COUNT, ptr, ptr, ptr, ptr, ptr, ptr, ptr, ptr, ptr, %struct.crypto_ex_data_st, ptr, ptr, ptr, ptr, ptr, ptr, ptr, i64, i32, i32, i32, i64, ptr, ptr, i32, ptr, ptr, i32, i64, [32 x i8], ptr, ptr, ptr, i32, ptr, ptr, ptr, i64, i64, i64, i64, ptr, ptr, ptr, ptr, ptr, %struct.anon.5, ptr, ptr, ptr, ptr, %struct.srp_ctx_st, %struct.dane_ctx_st, ptr, ptr, ptr, ptr, i32, i32, ptr, ptr, i64, i64, ptr, ptr, ptr, i64, ptr, ptr, i32, ptr, ptr, ptr, [14 x i32], [24 x ptr], [14 x ptr], [14 x i64], i64, ptr, ptr, ptr, i64, i64, ptr, i64, i64, i32, i32, i32, i32, ptr, i64, ptr, i64, i64, ptr, ptr }
%struct.anon.4 = type { i32, i32, i32, i32, i32, i32, i32, i32, i32, i32, i32 }
%struct.anon.5 = type { ptr, ptr, [16 x i8], ptr, ptr, ptr, ptr, ptr, i32, i8, i64, ptr, i64, ptr, i64, ptr, i64, ptr, ptr, i64, ptr, ptr, ptr, i64, ptr, ptr, ptr, ptr, [32 x i8] }
%struct.dane_ctx_st = type { ptr, ptr, i8, i64 }

@.str = private unnamed_addr constant [24 x i8] c"../openssl/ssl/s3_enc.c\00", align 1
@ssl3_generate_master_secret.salt = internal constant [3 x ptr] [ptr @.str.2, ptr @.str.3, ptr @.str.4], align 16
@__func__.ssl3_generate_master_secret = private unnamed_addr constant [28 x i8] c"ssl3_generate_master_secret\00", align 1

; Function Attrs: nounwind uwtable
define i32 @ssl3_generate_master_secret(ptr noundef %0, ptr noundef %1, ptr noundef %2, i64 noundef %3, ptr noundef %4) #0 {
  %6 = alloca i32, align 4
  %7 = alloca ptr, align 8
  %8 = alloca ptr, align 8
  %9 = alloca ptr, align 8
  %10 = alloca i64, align 8
  %11 = alloca ptr, align 8
  %12 = alloca [64 x i8], align 16
  %13 = alloca ptr, align 8
  %14 = alloca i32, align 4
  %15 = alloca i32, align 4
  %16 = alloca i32, align 4
  %17 = alloca i64, align 8
  %18 = alloca i32, align 4
  store ptr %0, ptr %7, align 8, !tbaa !3
  store ptr %1, ptr %8, align 8, !tbaa !77
  store ptr %2, ptr %9, align 8, !tbaa !77
  store i64 %3, ptr %10, align 8, !tbaa !78
  store ptr %4, ptr %11, align 8, !tbaa !114
  call void @llvm.lifetime.start.p0(i64 64, ptr %12) #7
  call void @llvm.lifetime.start.p0(i64 8, ptr %13) #7
  %19 = call ptr @EVP_MD_CTX_new()
  store ptr %19, ptr %13, align 8, !tbaa !100
  call void @llvm.lifetime.start.p0(i64 4, ptr %14) #7
  call void @llvm.lifetime.start.p0(i64 4, ptr %15) #7
  store i32 1, ptr %15, align 4, !tbaa !8
  call void @llvm.lifetime.start.p0(i64 4, ptr %16) #7
  call void @llvm.lifetime.start.p0(i64 8, ptr %17) #7
  store i64 0, ptr %17, align 8, !tbaa !78
  %20 = load ptr, ptr %13, align 8, !tbaa !100
  %21 = icmp eq ptr %20, null
  br i1 %21, label %22, label %24

22:                                               ; preds = %5
  call void @ERR_new()
  call void @ERR_set_debug(ptr noundef @.str, i32 noundef 397, ptr noundef @__func__.ssl3_generate_master_secret)
  %23 = load ptr, ptr %7, align 8, !tbaa !3
  call void (ptr, i32, i32, ptr, ...) @ossl_statem_fatal(ptr noundef %23, i32 noundef 80, i32 noundef 524294, ptr noundef null)
  store i32 0, ptr %6, align 4
  store i32 1, ptr %18, align 4
  br label %130

24:                                               ; preds = %5
  store i32 0, ptr %14, align 4, !tbaa !8
  br label %25

25:                                               ; preds = %117, %24
  %26 = load i32, ptr %14, align 4, !tbaa !8
  %27 = icmp slt i32 %26, 3
  br i1 %27, label %28, label %120

28:                                               ; preds = %25
  %29 = load ptr, ptr %13, align 8, !tbaa !100
  %30 = load ptr, ptr %7, align 8, !tbaa !3
  %31 = getelementptr inbounds nuw %struct.ssl_connection_st, ptr %30, i32 0, i32 0
  %32 = getelementptr inbounds nuw %struct.ssl_st, ptr %31, i32 0, i32 1
  %33 = load ptr, ptr %32, align 8, !tbaa !80
  %34 = getelementptr inbounds nuw %struct.ssl_ctx_st, ptr %33, i32 0, i32 28
  %35 = load ptr, ptr %34, align 8, !tbaa !115
  %36 = call i32 @EVP_DigestInit_ex(ptr noundef %29, ptr noundef %35, ptr noundef null)
  %37 = icmp sle i32 %36, 0
  br i1 %37, label %106, label %38

38:                                               ; preds = %28
  %39 = load ptr, ptr %13, align 8, !tbaa !100
  %40 = load i32, ptr %14, align 4, !tbaa !8
  %41 = sext i32 %40 to i64
  %42 = getelementptr inbounds [3 x ptr], ptr @ssl3_generate_master_secret.salt, i64 0, i64 %41
  %43 = load ptr, ptr %42, align 8, !tbaa !77
  %44 = load i32, ptr %14, align 4, !tbaa !8
  %45 = sext i32 %44 to i64
  %46 = getelementptr inbounds [3 x ptr], ptr @ssl3_generate_master_secret.salt, i64 0, i64 %45
  %47 = load ptr, ptr %46, align 8, !tbaa !77
  %48 = call i64 @strlen(ptr noundef %47) #8
  %49 = call i32 @EVP_DigestUpdate(ptr noundef %39, ptr noundef %43, i64 noundef %48)
  %50 = icmp sle i32 %49, 0
  br i1 %50, label %106, label %51

51:                                               ; preds = %38
  %52 = load ptr, ptr %13, align 8, !tbaa !100
  %53 = load ptr, ptr %9, align 8, !tbaa !77
  %54 = load i64, ptr %10, align 8, !tbaa !78
  %55 = call i32 @EVP_DigestUpdate(ptr noundef %52, ptr noundef %53, i64 noundef %54)
  %56 = icmp sle i32 %55, 0
  br i1 %56, label %106, label %57

57:                                               ; preds = %51
  %58 = load ptr, ptr %13, align 8, !tbaa !100
  %59 = load ptr, ptr %7, align 8, !tbaa !3
  %60 = getelementptr inbounds nuw %struct.ssl_connection_st, ptr %59, i32 0, i32 24
  %61 = getelementptr inbounds nuw %struct.anon, ptr %60, i32 0, i32 2
  %62 = getelementptr inbounds [32 x i8], ptr %61, i64 0, i64 0
  %63 = call i32 @EVP_DigestUpdate(ptr noundef %58, ptr noundef %62, i64 noundef 32)
  %64 = icmp sle i32 %63, 0
  br i1 %64, label %106, label %65

65:                                               ; preds = %57
  %66 = load ptr, ptr %13, align 8, !tbaa !100
  %67 = load ptr, ptr %7, align 8, !tbaa !3
  %68 = getelementptr inbounds nuw %struct.ssl_connection_st, ptr %67, i32 0, i32 24
  %69 = getelementptr inbounds nuw %struct.anon, ptr %68, i32 0, i32 1
  %70 = getelementptr inbounds [32 x i8], ptr %69, i64 0, i64 0
  %71 = call i32 @EVP_DigestUpdate(ptr noundef %66, ptr noundef %70, i64 noundef 32)
  %72 = icmp sle i32 %71, 0
  br i1 %72, label %106, label %73

73:                                               ; preds = %65
  %74 = load ptr, ptr %13, align 8, !tbaa !100
  %75 = getelementptr inbounds [64 x i8], ptr %12, i64 0, i64 0
  %76 = call i32 @EVP_DigestFinal_ex(ptr noundef %74, ptr noundef %75, ptr noundef %16)
  %77 = icmp sle i32 %76, 0
  br i1 %77, label %106, label %78

78:                                               ; preds = %73
  %79 = load ptr, ptr %13, align 8, !tbaa !100
  %80 = load ptr, ptr %7, align 8, !tbaa !3
  %81 = getelementptr inbounds nuw %struct.ssl_connection_st, ptr %80, i32 0, i32 0
  %82 = getelementptr inbounds nuw %struct.ssl_st, ptr %81, i32 0, i32 1
  %83 = load ptr, ptr %82, align 8, !tbaa !80
  %84 = getelementptr inbounds nuw %struct.ssl_ctx_st, ptr %83, i32 0, i32 27
  %85 = load ptr, ptr %84, align 8, !tbaa !116
  %86 = call i32 @EVP_DigestInit_ex(ptr noundef %79, ptr noundef %85, ptr noundef null)
  %87 = icmp sle i32 %86, 0
  br i1 %87, label %106, label %88

88:                                               ; preds = %78
  %89 = load ptr, ptr %13, align 8, !tbaa !100
  %90 = load ptr, ptr %9, align 8, !tbaa !77
  %91 = load i64, ptr %10, align 8, !tbaa !78
  %92 = call i32 @EVP_DigestUpdate(ptr noundef %89, ptr noundef %90, i64 noundef %91)
  %93 = icmp sle i32 %92, 0
  br i1 %93, label %106, label %94

94:                                               ; preds = %88
  %95 = load ptr, ptr %13, align 8, !tbaa !100
  %96 = getelementptr inbounds [64 x i8], ptr %12, i64 0, i64 0
  %97 = load i32, ptr %16, align 4, !tbaa !8
  %98 = zext i32 %97 to i64
  %99 = call i32 @EVP_DigestUpdate(ptr noundef %95, ptr noundef %96, i64 noundef %98)
  %100 = icmp sle i32 %99, 0
  br i1 %100, label %106, label %101

101:                                              ; preds = %94
  %102 = load ptr, ptr %13, align 8, !tbaa !100
  %103 = load ptr, ptr %8, align 8, !tbaa !77
  %104 = call i32 @EVP_DigestFinal_ex(ptr noundef %102, ptr noundef %103, ptr noundef %16)
  %105 = icmp sle i32 %104, 0
  br i1 %105, label %106, label %108

106:                                              ; preds = %101, %94, %88, %78, %73, %65, %57, %51, %38, %28
  call void @ERR_new()
  call void @ERR_set_debug(ptr noundef @.str, i32 noundef 414, ptr noundef @__func__.ssl3_generate_master_secret)
  %107 = load ptr, ptr %7, align 8, !tbaa !3
  call void (ptr, i32, i32, ptr, ...) @ossl_statem_fatal(ptr noundef %107, i32 noundef 80, i32 noundef 786691, ptr noundef null)
  store i32 0, ptr %15, align 4, !tbaa !8
  br label %120

108:                                              ; preds = %101
  %109 = load i32, ptr %16, align 4, !tbaa !8
  %110 = load ptr, ptr %8, align 8, !tbaa !77
  %111 = zext i32 %109 to i64
  %112 = getelementptr inbounds nuw i8, ptr %110, i64 %111
  store ptr %112, ptr %8, align 8, !tbaa !77
  %113 = load i32, ptr %16, align 4, !tbaa !8
  %114 = zext i32 %113 to i64
  %115 = load i64, ptr %17, align 8, !tbaa !78
  %116 = add i64 %115, %114
  store i64 %116, ptr %17, align 8, !tbaa !78
  br label %117

117:                                              ; preds = %108
  %118 = load i32, ptr %14, align 4, !tbaa !8
  %119 = add nsw i32 %118, 1
  store i32 %119, ptr %14, align 4, !tbaa !8
  br label %25, !llvm.loop !117

120:                                              ; preds = %106, %25
  %121 = load ptr, ptr %13, align 8, !tbaa !100
  call void @EVP_MD_CTX_free(ptr noundef %121)
  %122 = getelementptr inbounds [64 x i8], ptr %12, i64 0, i64 0
  call void @OPENSSL_cleanse(ptr noundef %122, i64 noundef 64)
  %123 = load i32, ptr %15, align 4, !tbaa !8
  %124 = icmp ne i32 %123, 0
  br i1 %124, label %125, label %128

125:                                              ; preds = %120
  %126 = load i64, ptr %17, align 8, !tbaa !78
  %127 = load ptr, ptr %11, align 8, !tbaa !114
  store i64 %126, ptr %127, align 8, !tbaa !78
  br label %128

128:                                              ; preds = %125, %120
  %129 = load i32, ptr %15, align 4, !tbaa !8
  store i32 %129, ptr %6, align 4
  store i32 1, ptr %18, align 4
  br label %130

130:                                              ; preds = %128, %22
  call void @llvm.lifetime.end.p0(i64 8, ptr %17) #7
  call void @llvm.lifetime.end.p0(i64 4, ptr %16) #7
  call void @llvm.lifetime.end.p0(i64 4, ptr %15) #7
  call void @llvm.lifetime.end.p0(i64 4, ptr %14) #7
  call void @llvm.lifetime.end.p0(i64 8, ptr %13) #7
  call void @llvm.lifetime.end.p0(i64 64, ptr %12) #7
  %131 = load i32, ptr %6, align 4
  ret i32 %131
}