; Function Attrs: nounwind uwtable
define range(i32 0, 2) i32 @ssl3_generate_master_secret(ptr noundef %0, ptr noundef %1, ptr noundef %2, i64 noundef %3, ptr noundef writeonly captures(none) %4) local_unnamed_addr #0 {
  %6 = alloca [64 x i8], align 16
  %7 = alloca i32, align 4
  call void @llvm.lifetime.start.p0(i64 64, ptr nonnull %6) #8
  %8 = tail call ptr @EVP_MD_CTX_new() #8
  call void @llvm.lifetime.start.p0(i64 4, ptr nonnull %7) #8
  %9 = icmp eq ptr %8, null
  br i1 %9, label %13, label %.preheader

.preheader:                                       ; preds = %5
  %10 = getelementptr inbounds nuw i8, ptr %0, i64 8
  %11 = getelementptr inbounds nuw i8, ptr %0, i64 392
  %12 = getelementptr inbounds nuw i8, ptr %0, i64 360
  br label %14

13:                                               ; preds = %5
  tail call void @ERR_new() #8
  tail call void @ERR_set_debug(ptr noundef nonnull @.str, i32 noundef 397, ptr noundef nonnull @__func__.ssl3_generate_master_secret) #8
  tail call void (ptr, i32, i32, ptr, ...) @ossl_statem_fatal(ptr noundef %0, i32 noundef 80, i32 noundef 524294, ptr noundef null) #8
  br label %63

14:                                               ; preds = %.preheader, %56
  %indvars.iv = phi i64 [ 0, %.preheader ], [ %indvars.iv.next, %56 ]
  %.043 = phi i64 [ 0, %.preheader ], [ %60, %56 ]
  %.03641 = phi ptr [ %1, %.preheader ], [ %59, %56 ]
  %15 = load ptr, ptr %10, align 8, !tbaa !74
  %16 = getelementptr inbounds nuw i8, ptr %15, i64 264
  %17 = load ptr, ptr %16, align 8, !tbaa !107
  %18 = call i32 @EVP_DigestInit_ex(ptr noundef nonnull %8, ptr noundef %17, ptr noundef null) #8
  %19 = icmp slt i32 %18, 1
  br i1 %19, label %55, label %20

20:                                               ; preds = %14
  %21 = getelementptr inbounds nuw [3 x ptr], ptr @ssl3_generate_master_secret.salt, i64 0, i64 %indvars.iv
  %22 = load ptr, ptr %21, align 8, !tbaa !104
  %23 = call i64 @strlen(ptr noundef nonnull dereferenceable(1) %22) #9
  %24 = call i32 @EVP_DigestUpdate(ptr noundef nonnull %8, ptr noundef nonnull %22, i64 noundef %23) #8
  %25 = icmp slt i32 %24, 1
  br i1 %25, label %55, label %26

26:                                               ; preds = %20
  %27 = call i32 @EVP_DigestUpdate(ptr noundef nonnull %8, ptr noundef %2, i64 noundef %3) #8
  %28 = icmp slt i32 %27, 1
  br i1 %28, label %55, label %29

29:                                               ; preds = %26
  %30 = call i32 @EVP_DigestUpdate(ptr noundef nonnull %8, ptr noundef nonnull %11, i64 noundef 32) #8
  %31 = icmp slt i32 %30, 1
  br i1 %31, label %55, label %32

32:                                               ; preds = %29
  %33 = call i32 @EVP_DigestUpdate(ptr noundef nonnull %8, ptr noundef nonnull %12, i64 noundef 32) #8
  %34 = icmp slt i32 %33, 1
  br i1 %34, label %55, label %35

35:                                               ; preds = %32
  %36 = call i32 @EVP_DigestFinal_ex(ptr noundef nonnull %8, ptr noundef nonnull %6, ptr noundef nonnull %7) #8
  %37 = icmp slt i32 %36, 1
  br i1 %37, label %55, label %38

38:                                               ; preds = %35
  %39 = load ptr, ptr %10, align 8, !tbaa !74
  %40 = getelementptr inbounds nuw i8, ptr %39, i64 256
  %41 = load ptr, ptr %40, align 8, !tbaa !108
  %42 = call i32 @EVP_DigestInit_ex(ptr noundef nonnull %8, ptr noundef %41, ptr noundef null) #8
  %43 = icmp slt i32 %42, 1
  br i1 %43, label %55, label %44

44:                                               ; preds = %38
  %45 = call i32 @EVP_DigestUpdate(ptr noundef nonnull %8, ptr noundef %2, i64 noundef %3) #8
  %46 = icmp slt i32 %45, 1
  br i1 %46, label %55, label %47

47:                                               ; preds = %44
  %48 = load i32, ptr %7, align 4, !tbaa !105
  %49 = zext i32 %48 to i64
  %50 = call i32 @EVP_DigestUpdate(ptr noundef nonnull %8, ptr noundef nonnull %6, i64 noundef %49) #8
  %51 = icmp slt i32 %50, 1
  br i1 %51, label %55, label %52

52:                                               ; preds = %47
  %53 = call i32 @EVP_DigestFinal_ex(ptr noundef nonnull %8, ptr noundef %.03641, ptr noundef nonnull %7) #8
  %54 = icmp slt i32 %53, 1
  br i1 %54, label %55, label %56

55:                                               ; preds = %52, %47, %44, %38, %35, %32, %29, %26, %20, %14
  call void @ERR_new() #8
  call void @ERR_set_debug(ptr noundef nonnull @.str, i32 noundef 414, ptr noundef nonnull @__func__.ssl3_generate_master_secret) #8
  call void (ptr, i32, i32, ptr, ...) @ossl_statem_fatal(ptr noundef nonnull %0, i32 noundef 80, i32 noundef 786691, ptr noundef null) #8
  br label %.loopexit

56:                                               ; preds = %52
  %57 = load i32, ptr %7, align 4, !tbaa !105
  %58 = zext i32 %57 to i64
  %59 = getelementptr inbounds nuw i8, ptr %.03641, i64 %58
  %60 = add i64 %.043, %58
  %indvars.iv.next = add nuw nsw i64 %indvars.iv, 1
  %exitcond.not = icmp eq i64 %indvars.iv.next, 3
  br i1 %exitcond.not, label %.loopexit, label %14, !llvm.loop !109

.loopexit:                                        ; preds = %56, %55
  %.040 = phi i64 [ %.043, %55 ], [ %60, %56 ]
  %61 = phi i1 [ true, %55 ], [ false, %56 ]
  %.033 = phi i32 [ 0, %55 ], [ 1, %56 ]
  call void @EVP_MD_CTX_free(ptr noundef nonnull %8) #8
  call void @OPENSSL_cleanse(ptr noundef nonnull %6, i64 noundef 64) #8
  br i1 %61, label %63, label %62

62:                                               ; preds = %.loopexit
  store i64 %.040, ptr %4, align 8, !tbaa !106
  br label %63

63:                                               ; preds = %.loopexit, %62, %13
  %.035 = phi i32 [ 0, %13 ], [ %.033, %62 ], [ %.033, %.loopexit ]
  call void @llvm.lifetime.end.p0(i64 4, ptr nonnull %7) #8
  call void @llvm.lifetime.end.p0(i64 64, ptr nonnull %6) #8
  ret i32 %.035
}